target datalayout = "e-m:e-p270:32:32-p271:32:32-p272:64:64-i64:64-i128:128-f80:128-n8:16:32:64-S128"
target triple = "x86_64-pc-linux-gnu"

%struct.H5G_dense_bt2_corder_rec_t = type { [7 x i8], i64 }

@H5G_init_g = external global i8, align 1
@H5_libterm_g = external global i8, align 1
@.str.7 = private unnamed_addr constant [1 x i8] zeroinitializer, align 1
@.str.8 = private unnamed_addr constant [8 x i8] c"Record:\00", align 1
@stderr = external global ptr, align 8
@.str.9 = private unnamed_addr constant [7 x i8] c"%02x%s\00", align 1
@.str.10 = private unnamed_addr constant [2 x i8] c" \00", align 1
@.str.11 = private unnamed_addr constant [3 x i8] c"}\0A\00", align 1
@.str.12 = private unnamed_addr constant [16 x i8] c"%*s%-*s {%llu, \00", align 1

; Function Attrs: nounwind uwtable
define internal i32 @H5G__dense_btree2_corder_debug(ptr noundef %0, i32 noundef %1, i32 noundef %2, ptr noundef %3, ptr noundef %4) #0 {
  %6 = alloca ptr, align 8
  %7 = alloca i32, align 4
  %8 = alloca i32, align 4
  %9 = alloca ptr, align 8
  %10 = alloca ptr, align 8
  %11 = alloca ptr, align 8
  %12 = alloca i32, align 4
  store ptr %0, ptr %6, align 8, !tbaa !45
  store i32 %1, ptr %7, align 4, !tbaa !29
  store i32 %2, ptr %8, align 4, !tbaa !29
  store ptr %3, ptr %9, align 8, !tbaa !3
  store ptr %4, ptr %10, align 8, !tbaa !3
  call void @llvm.lifetime.start.p0(i64 8, ptr %11) #7
  %13 = load ptr, ptr %9, align 8, !tbaa !3
  store ptr %13, ptr %11, align 8, !tbaa !49
  call void @llvm.lifetime.start.p0(i64 4, ptr %12) #7
  %14 = load i8, ptr @H5G_init_g, align 1, !tbaa !11, !range !13, !noundef !14
  %15 = trunc i8 %14 to i1
  br i1 %15, label %20, label %16

16:                                               ; preds = %5
  %17 = load i8, ptr @H5_libterm_g, align 1, !tbaa !11, !range !13, !noundef !14
  %18 = trunc i8 %17 to i1
  %19 = xor i1 %18, true
  br label %20

20:                                               ; preds = %16, %5
  %21 = phi i1 [ true, %5 ], [ %19, %16 ]
  %22 = xor i1 %21, true
  %23 = xor i1 %22, true
  %24 = zext i1 %23 to i32
  %25 = sext i32 %24 to i64
  %26 = call i64 @llvm.expect.i64(i64 %25, i64 1)
  %27 = icmp ne i64 %26, 0
  br i1 %27, label %28, label %56

28:                                               ; preds = %20
  %29 = load ptr, ptr %6, align 8, !tbaa !45
  %30 = load i32, ptr %7, align 4, !tbaa !29
  %31 = load i32, ptr %8, align 4, !tbaa !29
  %32 = load ptr, ptr %11, align 8, !tbaa !49
  %33 = getelementptr inbounds nuw %struct.H5G_dense_bt2_corder_rec_t, ptr %32, i32 0, i32 1
  %34 = load i64, ptr %33, align 8, !tbaa !52
  %35 = call i32 (ptr, ptr, ...) @fprintf(ptr noundef %29, ptr noundef @.str.12, i32 noundef %30, ptr noundef @.str.7, i32 noundef %31, ptr noundef @.str.8, i64 noundef %34) #7
  store i32 0, ptr %12, align 4, !tbaa !29
  br label %36

36:                                               ; preds = %52, %28
  %37 = load i32, ptr %12, align 4, !tbaa !29
  %38 = icmp ult i32 %37, 7
  br i1 %38, label %39, label %55

39:                                               ; preds = %36
  %40 = load ptr, ptr @stderr, align 8, !tbaa !45
  %41 = load ptr, ptr %11, align 8, !tbaa !49
  %42 = getelementptr inbounds nuw %struct.H5G_dense_bt2_corder_rec_t, ptr %41, i32 0, i32 0
  %43 = load i32, ptr %12, align 4, !tbaa !29
  %44 = zext i32 %43 to i64
  %45 = getelementptr inbounds nuw [7 x i8], ptr %42, i64 0, i64 %44
  %46 = load i8, ptr %45, align 1, !tbaa !44
  %47 = zext i8 %46 to i32
  %48 = load i32, ptr %12, align 4, !tbaa !29
  %49 = icmp ult i32 %48, 6
  %50 = select i1 %49, ptr @.str.10, ptr @.str.11
  %51 = call i32 (ptr, ptr, ...) @fprintf(ptr noundef %40, ptr noundef @.str.9, i32 noundef %47, ptr noundef %50) #7
  br label %52

52:                                               ; preds = %39
  %53 = load i32, ptr %12, align 4, !tbaa !29
  %54 = add i32 %53, 1
  store i32 %54, ptr %12, align 4, !tbaa !29
  br label %36, !llvm.loop !58

55:                                               ; preds = %36
  br label %56

56:                                               ; preds = %55, %20
  call void @llvm.lifetime.end.p0(i64 4, ptr %12) #7
  call void @llvm.lifetime.end.p0(i64 8, ptr %11) #7
  ret i32 0
}