; Function Attrs: nofree nounwind uwtable
define internal noundef i32 @H5G__dense_btree2_corder_debug(ptr noundef captures(none) %0, i32 noundef %1, i32 noundef %2, ptr noundef readonly captures(none) %3, ptr readnone captures(none) %4) #2 {
  %6 = load i8, ptr @H5G_init_g, align 1, !tbaa !3, !range !7, !noundef !8
  %7 = trunc nuw i8 %6 to i1
  %8 = load i8, ptr @H5_libterm_g, align 1, !range !7
  %9 = trunc nuw i8 %8 to i1
  %10 = xor i1 %9, true
  %11 = select i1 %7, i1 true, i1 %10
  br i1 %11, label %12, label %.loopexit, !prof !9

12:                                               ; preds = %5
  %13 = getelementptr inbounds nuw i8, ptr %3, i64 8
  %14 = load i64, ptr %13, align 8, !tbaa !41
  %15 = tail call i32 (ptr, ptr, ...) @fprintf(ptr noundef %0, ptr noundef nonnull @.str.12, i32 noundef %1, ptr noundef nonnull @.str.7, i32 noundef %2, ptr noundef nonnull @.str.8, i64 noundef %14) #10
  br label %16

16:                                               ; preds = %12, %16
  %indvars.iv = phi i64 [ 0, %12 ], [ %indvars.iv.next, %16 ]
  %17 = load ptr, ptr @stderr, align 8, !tbaa !36
  %18 = getelementptr inbounds nuw [7 x i8], ptr %3, i64 0, i64 %indvars.iv
  %19 = load i8, ptr %18, align 1, !tbaa !35
  %20 = zext i8 %19 to i32
  %.not = icmp eq i64 %indvars.iv, 6
  %21 = select i1 %.not, ptr @.str.11, ptr @.str.10
  %22 = tail call i32 (ptr, ptr, ...) @fprintf(ptr noundef %17, ptr noundef nonnull @.str.9, i32 noundef %20, ptr noundef nonnull %21) #11
  %indvars.iv.next = add nuw nsw i64 %indvars.iv, 1
  %exitcond.not = icmp eq i64 %indvars.iv.next, 7
  br i1 %exitcond.not, label %.loopexit, label %16, !llvm.loop !46

.loopexit:                                        ; preds = %16, %5
  ret i32 0
}